#include <math.h>
#include <stdio.h>
#include <stdlib.h>
#include <string.h>
#include <iostream>
using namespace std;

int main()
{
	int a[20000], n, i, j, b[20000] = {0};
	cin >> n;
    for(i = 0; i < n; i++)
	{
		cin >> a[i];
	}
	for(i = 0; i < n; i++)
	{
		for(j = i + 1; j < n; j++)
		{
			if(a[j] == a[i])
			{
				b[j]++;
			}
		}
	}
    cout << a[0];
	for(i = 1; i < n; i++)
	{
        if(b[i] == 0)
		{
			cout << ' ' << a[i] ;
		}
	}
	return 0;
}