; ModuleID = 'source-C-CXX/12/984.cpp'
source_filename = "source-C-CXX/12/984.cpp"
target datalayout = "e-m:e-p270:32:32-p271:32:32-p272:64:64-i64:64-f80:128-n8:16:32:64-S128"
target triple = "x86_64-pc-linux-gnu"

%"class.std::ios_base::Init" = type { i8 }
%"class.std::basic_istream" = type { i32 (...)**, i64, %"class.std::basic_ios" }
%"class.std::basic_ios" = type { %"class.std::ios_base", %"class.std::basic_ostream"*, i8, i8, %"class.std::basic_streambuf"*, %"class.std::ctype"*, %"class.std::num_put"*, %"class.std::num_get"* }
%"class.std::ios_base" = type { i32 (...)**, i64, i64, i32, i32, i32, %"struct.std::ios_base::_Callback_list"*, %"struct.std::ios_base::_Words", [8 x %"struct.std::ios_base::_Words"], i32, %"struct.std::ios_base::_Words"*, %"class.std::locale" }
%"struct.std::ios_base::_Callback_list" = type { %"struct.std::ios_base::_Callback_list"*, void (i32, %"class.std::ios_base"*, i32)*, i32, i32 }
%"struct.std::ios_base::_Words" = type { i8*, i64 }
%"class.std::locale" = type { %"class.std::locale::_Impl"* }
%"class.std::locale::_Impl" = type { i32, %"class.std::locale::facet"**, i64, %"class.std::locale::facet"**, i8** }
%"class.std::locale::facet" = type <{ i32 (...)**, i32, [4 x i8] }>
%"class.std::basic_ostream" = type { i32 (...)**, %"class.std::basic_ios" }
%"class.std::basic_streambuf" = type { i32 (...)**, i8*, i8*, i8*, i8*, i8*, i8*, %"class.std::locale" }
%"class.std::ctype" = type <{ %"class.std::locale::facet.base", [4 x i8], %struct.__locale_struct*, i8, [7 x i8], i32*, i32*, i16*, i8, [256 x i8], [256 x i8], i8, [6 x i8] }>
%"class.std::locale::facet.base" = type <{ i32 (...)**, i32 }>
%struct.__locale_struct = type { [13 x %struct.__locale_data*], i16*, i32*, i32*, [13 x i8*] }
%struct.__locale_data = type opaque
%"class.std::num_put" = type { %"class.std::locale::facet.base", [4 x i8] }
%"class.std::num_get" = type { %"class.std::locale::facet.base", [4 x i8] }

@_ZStL8__ioinit = internal global %"class.std::ios_base::Init" zeroinitializer, align 1
@__dso_handle = external hidden global i8
@_ZSt3cin = external global %"class.std::basic_istream", align 8
@_ZSt4cout = external global %"class.std::basic_ostream", align 8
@llvm.global_ctors = appending global [1 x { i32, void ()*, i8* }] [{ i32, void ()*, i8* } { i32 65535, void ()* @_GLOBAL__sub_I_984.cpp, i8* null }]

declare void @_ZNSt8ios_base4InitC1Ev(%"class.std::ios_base::Init"* nonnull align 1 dereferenceable(1)) unnamed_addr #0

; Function Attrs: nounwind
declare void @_ZNSt8ios_base4InitD1Ev(%"class.std::ios_base::Init"* nonnull align 1 dereferenceable(1)) unnamed_addr #1

; Function Attrs: nofree nounwind
declare i32 @__cxa_atexit(void (i8*)*, i8*, i8*) local_unnamed_addr #2

; Function Attrs: mustprogress norecurse sspstrong uwtable
define dso_local i32 @main() local_unnamed_addr #3 {
  %1 = alloca i8, align 1
  %2 = alloca [20000 x i32], align 16
  %3 = alloca i32, align 4
  %4 = alloca [20000 x i32], align 16
  %5 = bitcast [20000 x i32]* %2 to i8*
  call void @llvm.lifetime.start.p0i8(i64 80000, i8* nonnull %5) #7
  %6 = bitcast i32* %3 to i8*
  call void @llvm.lifetime.start.p0i8(i64 4, i8* nonnull %6) #7
  %7 = bitcast [20000 x i32]* %4 to i8*
  call void @llvm.lifetime.start.p0i8(i64 80000, i8* nonnull %7) #7
  call void @llvm.memset.p0i8.i64(i8* noundef nonnull align 16 dereferenceable(80000) %7, i8 0, i64 80000, i1 false)
  %8 = call nonnull align 8 dereferenceable(16) %"class.std::basic_istream"* @_ZNSirsERi(%"class.std::basic_istream"* nonnull align 8 dereferenceable(16) @_ZSt3cin, i32* nonnull align 4 dereferenceable(4) %3)
  %9 = load i32, i32* %3, align 4, !tbaa !5
  %10 = icmp sgt i32 %9, 0
  br i1 %10, label %17, label %67

11:                                               ; preds = %17
  %12 = icmp sgt i32 %22, 0
  br i1 %12, label %13, label %67

13:                                               ; preds = %11
  %14 = zext i32 %22 to i64
  %15 = zext i32 %22 to i64
  %16 = add nsw i64 %15, -2
  br label %28

17:                                               ; preds = %0, %17
  %18 = phi i64 [ %21, %17 ], [ 0, %0 ]
  %19 = getelementptr inbounds [20000 x i32], [20000 x i32]* %2, i64 0, i64 %18
  %20 = call nonnull align 8 dereferenceable(16) %"class.std::basic_istream"* @_ZNSirsERi(%"class.std::basic_istream"* nonnull align 8 dereferenceable(16) @_ZSt3cin, i32* nonnull align 4 dereferenceable(4) %19)
  %21 = add nuw nsw i64 %18, 1
  %22 = load i32, i32* %3, align 4, !tbaa !5
  %23 = sext i32 %22 to i64
  %24 = icmp slt i64 %21, %23
  br i1 %24, label %17, label %11, !llvm.loop !9

25:                                               ; preds = %50, %95, %28
  %26 = add nuw nsw i64 %30, 1
  %27 = icmp eq i64 %31, %15
  br i1 %27, label %67, label %28, !llvm.loop !11

28:                                               ; preds = %13, %25
  %29 = phi i64 [ 0, %13 ], [ %31, %25 ]
  %30 = phi i64 [ 1, %13 ], [ %26, %25 ]
  %31 = add nuw nsw i64 %29, 1
  %32 = icmp ult i64 %31, %14
  br i1 %32, label %33, label %25

33:                                               ; preds = %28
  %34 = xor i64 %29, -1
  %35 = add nsw i64 %34, %15
  %36 = getelementptr inbounds [20000 x i32], [20000 x i32]* %2, i64 0, i64 %29
  %37 = load i32, i32* %36, align 4, !tbaa !5
  %38 = and i64 %35, 1
  %39 = icmp eq i64 %38, 0
  br i1 %39, label %50, label %40

40:                                               ; preds = %33
  %41 = getelementptr inbounds [20000 x i32], [20000 x i32]* %2, i64 0, i64 %30
  %42 = load i32, i32* %41, align 4, !tbaa !5
  %43 = icmp eq i32 %42, %37
  br i1 %43, label %44, label %48

44:                                               ; preds = %40
  %45 = getelementptr inbounds [20000 x i32], [20000 x i32]* %4, i64 0, i64 %30
  %46 = load i32, i32* %45, align 4, !tbaa !5
  %47 = add nsw i32 %46, 1
  store i32 %47, i32* %45, align 4, !tbaa !5
  br label %48

48:                                               ; preds = %44, %40
  %49 = add nuw nsw i64 %30, 1
  br label %50

50:                                               ; preds = %48, %33
  %51 = phi i64 [ %49, %48 ], [ %30, %33 ]
  %52 = icmp eq i64 %16, %29
  br i1 %52, label %25, label %53

53:                                               ; preds = %50, %95
  %54 = phi i64 [ %96, %95 ], [ %51, %50 ]
  %55 = getelementptr inbounds [20000 x i32], [20000 x i32]* %2, i64 0, i64 %54
  %56 = load i32, i32* %55, align 4, !tbaa !5
  %57 = icmp eq i32 %56, %37
  br i1 %57, label %58, label %62

58:                                               ; preds = %53
  %59 = getelementptr inbounds [20000 x i32], [20000 x i32]* %4, i64 0, i64 %54
  %60 = load i32, i32* %59, align 4, !tbaa !5
  %61 = add nsw i32 %60, 1
  store i32 %61, i32* %59, align 4, !tbaa !5
  br label %62

62:                                               ; preds = %53, %58
  %63 = add nuw nsw i64 %54, 1
  %64 = getelementptr inbounds [20000 x i32], [20000 x i32]* %2, i64 0, i64 %63
  %65 = load i32, i32* %64, align 4, !tbaa !5
  %66 = icmp eq i32 %65, %37
  br i1 %66, label %91, label %95

67:                                               ; preds = %25, %0, %11
  %68 = getelementptr inbounds [20000 x i32], [20000 x i32]* %2, i64 0, i64 0
  %69 = load i32, i32* %68, align 16, !tbaa !5
  %70 = call nonnull align 8 dereferenceable(8) %"class.std::basic_ostream"* @_ZNSolsEi(%"class.std::basic_ostream"* nonnull align 8 dereferenceable(8) @_ZSt4cout, i32 %69)
  %71 = load i32, i32* %3, align 4, !tbaa !5
  %72 = icmp sgt i32 %71, 1
  br i1 %72, label %73, label %90

73:                                               ; preds = %67, %85
  %74 = phi i32 [ %86, %85 ], [ %71, %67 ]
  %75 = phi i64 [ %87, %85 ], [ 1, %67 ]
  %76 = getelementptr inbounds [20000 x i32], [20000 x i32]* %4, i64 0, i64 %75
  %77 = load i32, i32* %76, align 4, !tbaa !5
  %78 = icmp eq i32 %77, 0
  br i1 %78, label %79, label %85

79:                                               ; preds = %73
  call void @llvm.lifetime.start.p0i8(i64 1, i8* nonnull %1)
  store i8 32, i8* %1, align 1, !tbaa !12
  %80 = call nonnull align 8 dereferenceable(8) %"class.std::basic_ostream"* @_ZSt16__ostream_insertIcSt11char_traitsIcEERSt13basic_ostreamIT_T0_ES6_PKS3_l(%"class.std::basic_ostream"* nonnull align 8 dereferenceable(8) @_ZSt4cout, i8* nonnull %1, i64 1)
  call void @llvm.lifetime.end.p0i8(i64 1, i8* nonnull %1)
  %81 = getelementptr inbounds [20000 x i32], [20000 x i32]* %2, i64 0, i64 %75
  %82 = load i32, i32* %81, align 4, !tbaa !5
  %83 = call nonnull align 8 dereferenceable(8) %"class.std::basic_ostream"* @_ZNSolsEi(%"class.std::basic_ostream"* nonnull align 8 dereferenceable(8) %80, i32 %82)
  %84 = load i32, i32* %3, align 4, !tbaa !5
  br label %85

85:                                               ; preds = %73, %79
  %86 = phi i32 [ %74, %73 ], [ %84, %79 ]
  %87 = add nuw nsw i64 %75, 1
  %88 = sext i32 %86 to i64
  %89 = icmp slt i64 %87, %88
  br i1 %89, label %73, label %90, !llvm.loop !13

90:                                               ; preds = %85, %67
  call void @llvm.lifetime.end.p0i8(i64 80000, i8* nonnull %7) #7
  call void @llvm.lifetime.end.p0i8(i64 4, i8* nonnull %6) #7
  call void @llvm.lifetime.end.p0i8(i64 80000, i8* nonnull %5) #7
  ret i32 0

91:                                               ; preds = %62
  %92 = getelementptr inbounds [20000 x i32], [20000 x i32]* %4, i64 0, i64 %63
  %93 = load i32, i32* %92, align 4, !tbaa !5
  %94 = add nsw i32 %93, 1
  store i32 %94, i32* %92, align 4, !tbaa !5
  br label %95

95:                                               ; preds = %91, %62
  %96 = add nuw nsw i64 %54, 2
  %97 = icmp eq i64 %96, %15
  br i1 %97, label %25, label %53, !llvm.loop !14
}

; Function Attrs: argmemonly mustprogress nofree nosync nounwind willreturn
declare void @llvm.lifetime.start.p0i8(i64 immarg, i8* nocapture) #4

; Function Attrs: argmemonly mustprogress nofree nounwind willreturn writeonly
declare void @llvm.memset.p0i8.i64(i8* nocapture writeonly, i8, i64, i1 immarg) #5

declare nonnull align 8 dereferenceable(16) %"class.std::basic_istream"* @_ZNSirsERi(%"class.std::basic_istream"* nonnull align 8 dereferenceable(16), i32* nonnull align 4 dereferenceable(4)) local_unnamed_addr #0

declare nonnull align 8 dereferenceable(8) %"class.std::basic_ostream"* @_ZNSolsEi(%"class.std::basic_ostream"* nonnull align 8 dereferenceable(8), i32) local_unnamed_addr #0

; Function Attrs: argmemonly mustprogress nofree nosync nounwind willreturn
declare void @llvm.lifetime.end.p0i8(i64 immarg, i8* nocapture) #4

declare nonnull align 8 dereferenceable(8) %"class.std::basic_ostream"* @_ZSt16__ostream_insertIcSt11char_traitsIcEERSt13basic_ostreamIT_T0_ES6_PKS3_l(%"class.std::basic_ostream"* nonnull align 8 dereferenceable(8), i8*, i64) local_unnamed_addr #0

; Function Attrs: sspstrong uwtable
define internal void @_GLOBAL__sub_I_984.cpp() #6 section ".text.startup" {
  tail call void @_ZNSt8ios_base4InitC1Ev(%"class.std::ios_base::Init"* nonnull align 1 dereferenceable(1) @_ZStL8__ioinit)
  %1 = tail call i32 @__cxa_atexit(void (i8*)* bitcast (void (%"class.std::ios_base::Init"*)* @_ZNSt8ios_base4InitD1Ev to void (i8*)*), i8* getelementptr inbounds (%"class.std::ios_base::Init", %"class.std::ios_base::Init"* @_ZStL8__ioinit, i64 0, i32 0), i8* nonnull @__dso_handle) #7
  ret void
}


!llvm.module.flags = !{!0, !1, !2, !3}
!llvm.ident = !{!4}

!0 = !{i32 1, !"wchar_size", i32 4}
!1 = !{i32 7, !"PIC Level", i32 2}
!2 = !{i32 7, !"PIE Level", i32 2}
!3 = !{i32 7, !"uwtable", i32 1}
!4 = !{!"clang version 13.0.0"}
!5 = !{!6, !6, i64 0}
!6 = !{!"int", !7, i64 0}
!7 = !{!"omnipotent char", !8, i64 0}
!8 = !{!"Simple C++ TBAA"}
!9 = distinct !{!9, !10}
!10 = !{!"llvm.loop.mustprogress"}
!11 = distinct !{!11, !10}
!12 = !{!7, !7, i64 0}
!13 = distinct !{!13, !10}
!14 = distinct !{!14, !10}
